; Function Attrs: nounwind uwtable
define ptr @l_Lake_EquipT_throw___rarg___boxed(ptr noundef %0, ptr readnone captures(none) %1, ptr noundef %2, ptr noundef %3) #0 {
  %5 = getelementptr inbounds nuw i8, ptr %0, i64 8
  %6 = load ptr, ptr %5, align 8, !tbaa !10
  %7 = ptrtoint ptr %6 to i64
  %8 = and i64 %7, 1
  %.not.i6 = icmp eq i64 %8, 0
  br i1 %.not.i6, label %9, label %lean_inc.exit.i

9:                                                ; preds = %4
  %.val.i.i = load i32, ptr %6, align 4, !tbaa !4
  %10 = icmp sgt i32 %.val.i.i, 0
  br i1 %10, label %11, label %13, !prof !9

11:                                               ; preds = %9
  %12 = add nuw i32 %.val.i.i, 1
  store i32 %12, ptr %6, align 4, !tbaa !4
  br label %lean_inc.exit.i

13:                                               ; preds = %9
  %.not.i6.i = icmp eq i32 %.val.i.i, 0
  br i1 %.not.i6.i, label %lean_inc.exit.i, label %14

14:                                               ; preds = %13
  tail call void @lean_inc_ref_cold(ptr noundef nonnull %6) #4
  br label %lean_inc.exit.i

lean_inc.exit.i:                                  ; preds = %14, %13, %11, %4
  %15 = ptrtoint ptr %0 to i64
  %16 = and i64 %15, 1
  %.not7.i = icmp eq i64 %16, 0
  br i1 %.not7.i, label %17, label %l_Lake_EquipT_throw___rarg.exit

17:                                               ; preds = %lean_inc.exit.i
  %18 = load i32, ptr %0, align 4, !tbaa !4
  %19 = icmp sgt i32 %18, 1
  br i1 %19, label %20, label %22, !prof !9

20:                                               ; preds = %17
  %21 = add nsw i32 %18, -1
  store i32 %21, ptr %0, align 4, !tbaa !4
  br label %l_Lake_EquipT_throw___rarg.exit

22:                                               ; preds = %17
  %.not.i.i = icmp eq i32 %18, 0
  br i1 %.not.i.i, label %l_Lake_EquipT_throw___rarg.exit, label %23

23:                                               ; preds = %22
  tail call void @lean_dec_ref_cold(ptr noundef nonnull %0) #4
  br label %l_Lake_EquipT_throw___rarg.exit

l_Lake_EquipT_throw___rarg.exit:                  ; preds = %lean_inc.exit.i, %20, %22, %23
  %24 = tail call ptr @lean_apply_2(ptr noundef %6, ptr noundef nonnull inttoptr (i64 1 to ptr), ptr noundef %2) #4
  %25 = ptrtoint ptr %3 to i64
  %26 = and i64 %25, 1
  %.not = icmp eq i64 %26, 0
  br i1 %.not, label %27, label %lean_dec.exit

27:                                               ; preds = %l_Lake_EquipT_throw___rarg.exit
  %28 = load i32, ptr %3, align 4, !tbaa !4
  %29 = icmp sgt i32 %28, 1
  br i1 %29, label %30, label %32, !prof !9

30:                                               ; preds = %27
  %31 = add nsw i32 %28, -1
  store i32 %31, ptr %3, align 4, !tbaa !4
  br label %lean_dec.exit

32:                                               ; preds = %27
  %.not.i = icmp eq i32 %28, 0
  br i1 %.not.i, label %lean_dec.exit, label %33

33:                                               ; preds = %32
  tail call void @lean_dec_ref_cold(ptr noundef nonnull %3) #4
  br label %lean_dec.exit

lean_dec.exit:                                    ; preds = %33, %32, %30, %l_Lake_EquipT_throw___rarg.exit
  ret ptr %24
}